; ModuleID = '53/665.c'
source_filename = "53/665.c"
target datalayout = "e-m:e-p270:32:32-p271:32:32-p272:64:64-i64:64-f80:128-n8:16:32:64-S128"
target triple = "x86_64-pc-linux-gnu"

@.str = private unnamed_addr constant [3 x i8] c"%d\00", align 1
@.str.1 = private unnamed_addr constant [4 x i8] c",%d\00", align 1

; Function Attrs: noinline nounwind uwtable
define dso_local void @main() #0 {
  %1 = alloca [100 x i32], align 16
  %2 = alloca i32, align 4
  %3 = alloca i32, align 4
  %4 = alloca i32, align 4
  %5 = alloca i32, align 4
  %6 = alloca i32, align 4
  %7 = alloca i32, align 4
  %8 = call i32 (i8*, ...) @__isoc99_scanf(i8* getelementptr inbounds ([3 x i8], [3 x i8]* @.str, i64 0, i64 0), i32* %7)
  store i32 0, i32* %2, align 4
  br label %9

9:                                                ; preds = %18, %0
  %10 = load i32, i32* %2, align 4
  %11 = load i32, i32* %7, align 4
  %12 = icmp slt i32 %10, %11
  br i1 %12, label %13, label %21

13:                                               ; preds = %9
  %14 = load i32, i32* %2, align 4
  %15 = sext i32 %14 to i64
  %16 = getelementptr inbounds [100 x i32], [100 x i32]* %1, i64 0, i64 %15
  %17 = call i32 (i8*, ...) @__isoc99_scanf(i8* getelementptr inbounds ([3 x i8], [3 x i8]* @.str, i64 0, i64 0), i32* %16)
  br label %18

18:                                               ; preds = %13
  %19 = load i32, i32* %2, align 4
  %20 = add nsw i32 %19, 1
  store i32 %20, i32* %2, align 4
  br label %9

21:                                               ; preds = %9
  store i32 0, i32* %2, align 4
  br label %22

22:                                               ; preds = %66, %21
  %23 = load i32, i32* %2, align 4
  %24 = load i32, i32* %7, align 4
  %25 = icmp slt i32 %23, %24
  br i1 %25, label %26, label %69

26:                                               ; preds = %22
  %27 = load i32, i32* %2, align 4
  %28 = sext i32 %27 to i64
  %29 = getelementptr inbounds [100 x i32], [100 x i32]* %1, i64 0, i64 %28
  %30 = load i32, i32* %29, align 4
  %31 = icmp eq i32 %30, 0
  br i1 %31, label %32, label %33

32:                                               ; preds = %26
  br label %66

33:                                               ; preds = %26
  %34 = load i32, i32* %2, align 4
  %35 = add nsw i32 %34, 1
  store i32 %35, i32* %3, align 4
  br label %36

36:                                               ; preds = %62, %33
  %37 = load i32, i32* %3, align 4
  %38 = load i32, i32* %7, align 4
  %39 = icmp slt i32 %37, %38
  br i1 %39, label %40, label %65

40:                                               ; preds = %36
  %41 = load i32, i32* %3, align 4
  %42 = sext i32 %41 to i64
  %43 = getelementptr inbounds [100 x i32], [100 x i32]* %1, i64 0, i64 %42
  %44 = load i32, i32* %43, align 4
  %45 = icmp eq i32 %44, 0
  br i1 %45, label %46, label %47

46:                                               ; preds = %40
  br label %62

47:                                               ; preds = %40
  %48 = load i32, i32* %3, align 4
  %49 = sext i32 %48 to i64
  %50 = getelementptr inbounds [100 x i32], [100 x i32]* %1, i64 0, i64 %49
  %51 = load i32, i32* %50, align 4
  %52 = load i32, i32* %2, align 4
  %53 = sext i32 %52 to i64
  %54 = getelementptr inbounds [100 x i32], [100 x i32]* %1, i64 0, i64 %53
  %55 = load i32, i32* %54, align 4
  %56 = icmp eq i32 %51, %55
  br i1 %56, label %57, label %61

57:                                               ; preds = %47
  %58 = load i32, i32* %3, align 4
  %59 = sext i32 %58 to i64
  %60 = getelementptr inbounds [100 x i32], [100 x i32]* %1, i64 0, i64 %59
  store i32 0, i32* %60, align 4
  br label %61

61:                                               ; preds = %57, %47
  br label %62

62:                                               ; preds = %61, %46
  %63 = load i32, i32* %3, align 4
  %64 = add nsw i32 %63, 1
  store i32 %64, i32* %3, align 4
  br label %36

65:                                               ; preds = %36
  br label %66

66:                                               ; preds = %65, %32
  %67 = load i32, i32* %2, align 4
  %68 = add nsw i32 %67, 1
  store i32 %68, i32* %2, align 4
  br label %22

69:                                               ; preds = %22
  store i32 0, i32* %2, align 4
  br label %70

70:                                               ; preds = %87, %69
  %71 = load i32, i32* %2, align 4
  %72 = load i32, i32* %7, align 4
  %73 = icmp slt i32 %71, %72
  br i1 %73, label %74, label %90

74:                                               ; preds = %70
  %75 = load i32, i32* %2, align 4
  %76 = sext i32 %75 to i64
  %77 = getelementptr inbounds [100 x i32], [100 x i32]* %1, i64 0, i64 %76
  %78 = load i32, i32* %77, align 4
  %79 = icmp ne i32 %78, 0
  br i1 %79, label %80, label %86

80:                                               ; preds = %74
  %81 = load i32, i32* %2, align 4
  %82 = sext i32 %81 to i64
  %83 = getelementptr inbounds [100 x i32], [100 x i32]* %1, i64 0, i64 %82
  %84 = load i32, i32* %83, align 4
  %85 = call i32 (i8*, ...) @printf(i8* getelementptr inbounds ([3 x i8], [3 x i8]* @.str, i64 0, i64 0), i32 %84)
  br label %90

86:                                               ; preds = %74
  br label %87

87:                                               ; preds = %86
  %88 = load i32, i32* %2, align 4
  %89 = add nsw i32 %88, 1
  store i32 %89, i32* %2, align 4
  br label %70

90:                                               ; preds = %80, %70
  %91 = load i32, i32* %2, align 4
  %92 = add nsw i32 %91, 1
  store i32 %92, i32* %2, align 4
  br label %93

93:                                               ; preds = %109, %90
  %94 = load i32, i32* %2, align 4
  %95 = load i32, i32* %7, align 4
  %96 = icmp slt i32 %94, %95
  br i1 %96, label %97, label %112

97:                                               ; preds = %93
  %98 = load i32, i32* %2, align 4
  %99 = sext i32 %98 to i64
  %100 = getelementptr inbounds [100 x i32], [100 x i32]* %1, i64 0, i64 %99
  %101 = load i32, i32* %100, align 4
  %102 = icmp ne i32 %101, 0
  br i1 %102, label %103, label %109

103:                                              ; preds = %97
  %104 = load i32, i32* %2, align 4
  %105 = sext i32 %104 to i64
  %106 = getelementptr inbounds [100 x i32], [100 x i32]* %1, i64 0, i64 %105
  %107 = load i32, i32* %106, align 4
  %108 = call i32 (i8*, ...) @printf(i8* getelementptr inbounds ([4 x i8], [4 x i8]* @.str.1, i64 0, i64 0), i32 %107)
  br label %109

109:                                              ; preds = %103, %97
  %110 = load i32, i32* %2, align 4
  %111 = add nsw i32 %110, 1
  store i32 %111, i32* %2, align 4
  br label %93

112:                                              ; preds = %93
  ret void
}

declare dso_local i32 @__isoc99_scanf(i8*, ...) #1

declare dso_local i32 @printf(i8*, ...) #1


!llvm.module.flags = !{!0}
!llvm.ident = !{!1}

!0 = !{i32 1, !"wchar_size", i32 4}
!1 = !{!"clang version 10.0.0-4ubuntu1 "}
